target datalayout = "e-m:e-p270:32:32-p271:32:32-p272:64:64-i64:64-i128:128-f80:128-n8:16:32:64-S128"
target triple = "x86_64-pc-linux-gnu"

%class.JfrCheckpointWriter = type <{ %class.EventWriterHost.base, [7 x i8], %class.TimeInstant, i64, i32, i32, i8, [7 x i8] }>
%class.EventWriterHost.base = type { %class.WriterHost.base }
%class.WriterHost.base = type <{ %class.AcquireReleaseMemoryWriterHost, i8 }>
%class.AcquireReleaseMemoryWriterHost = type { %class.MemoryWriterHost }
%class.MemoryWriterHost = type { %class.StorageHost }
%class.StorageHost = type { %class.Position, %class.Adapter }
%class.Position = type { ptr, ptr, ptr }
%class.Adapter = type { ptr, ptr }
%class.TimeInstant = type { %class.CounterRepresentation }
%class.CounterRepresentation = type { %class.Representation }
%class.Representation = type { i64 }
%struct.JfrCheckpointContext = type { i64, i32 }

; Function Attrs: mustprogress nounwind uwtable
define linkonce_odr hidden noundef ptr @_ZNK8PositionI8StackObjE7end_posEv(ptr noundef nonnull align 8 dereferenceable(24) %0) #1 comdat align 2 {
  %2 = alloca ptr, align 8
  store ptr %0, ptr %2, align 8
  %3 = load ptr, ptr %2, align 8
  %4 = getelementptr inbounds %class.Position, ptr %3, i32 0, i32 2
  %5 = load ptr, ptr %4, align 8
  ret ptr %5
}

; Function Attrs: mustprogress nounwind uwtable
define linkonce_odr hidden void @_ZN8PositionI8StackObjE15set_current_posEPKh(ptr noundef nonnull align 8 dereferenceable(24) %0, ptr noundef %1) #1 comdat align 2 {
  %3 = alloca ptr, align 8
  %4 = alloca ptr, align 8
  store ptr %0, ptr %3, align 8
  store ptr %1, ptr %4, align 8
  %5 = load ptr, ptr %3, align 8
  %6 = load ptr, ptr %4, align 8
  %7 = getelementptr inbounds %class.Position, ptr %5, i32 0, i32 1
  store ptr %6, ptr %7, align 8
  ret void
}

; Function Attrs: mustprogress nounwind uwtable
define linkonce_odr hidden noundef ptr @_ZNK8PositionI8StackObjE9start_posEv(ptr noundef nonnull align 8 dereferenceable(24) %0) #1 comdat align 2 {
  %2 = alloca ptr, align 8
  store ptr %0, ptr %2, align 8
  %3 = load ptr, ptr %2, align 8
  %4 = getelementptr inbounds %class.Position, ptr %3, i32 0, i32 0
  %5 = load ptr, ptr %4, align 8
  ret ptr %5
}

; Function Attrs: mustprogress nounwind uwtable
define linkonce_odr hidden noundef zeroext i1 @_ZNK11StorageHostI7AdapterI18JfrCheckpointFlushE8StackObjE8is_validEv(ptr noundef nonnull align 8 dereferenceable(40) %0) #1 comdat align 2 {
  %2 = alloca ptr, align 8
  store ptr %0, ptr %2, align 8
  %3 = load ptr, ptr %2, align 8
  %4 = call noundef ptr @_ZNK8PositionI8StackObjE7end_posEv(ptr noundef nonnull align 8 dereferenceable(24) %3)
  %5 = icmp ne ptr %4, null
  ret i1 %5
}

; Function Attrs: mustprogress nounwind uwtable
define hidden void @_ZN19JfrCheckpointWriter9set_countEj(ptr noundef nonnull align 8 dereferenceable(73) %0, i32 noundef %1) #1 align 2 {
  %3 = alloca ptr, align 8
  %4 = alloca i32, align 4
  store ptr %0, ptr %3, align 8
  store i32 %1, ptr %4, align 4
  %5 = load ptr, ptr %3, align 8
  %6 = load i32, ptr %4, align 4
  %7 = getelementptr inbounds %class.JfrCheckpointWriter, ptr %5, i32 0, i32 4
  store i32 %6, ptr %7, align 8
  ret void
}

; Function Attrs: mustprogress nounwind uwtable
define linkonce_odr hidden void @_ZN11StorageHostI7AdapterI18JfrCheckpointFlushE8StackObjE4seekEl(ptr noundef nonnull align 8 dereferenceable(40) %0, i64 noundef %1) #1 comdat align 2 {
  %3 = alloca ptr, align 8
  %4 = alloca i64, align 8
  store ptr %0, ptr %3, align 8
  store i64 %1, ptr %4, align 8
  %5 = load ptr, ptr %3, align 8
  %6 = call noundef zeroext i1 @_ZNK11StorageHostI7AdapterI18JfrCheckpointFlushE8StackObjE8is_validEv(ptr noundef nonnull align 8 dereferenceable(40) %5)
  br i1 %6, label %7, label %11

7:                                                ; preds = %2
  %8 = call noundef ptr @_ZNK8PositionI8StackObjE9start_posEv(ptr noundef nonnull align 8 dereferenceable(24) %5)
  %9 = load i64, ptr %4, align 8
  %10 = getelementptr inbounds i8, ptr %8, i64 %9
  call void @_ZN8PositionI8StackObjE15set_current_posEPKh(ptr noundef nonnull align 8 dereferenceable(24) %5, ptr noundef %10)
  br label %11

11:                                               ; preds = %7, %2
  ret void
}

; Function Attrs: mustprogress nounwind uwtable
define hidden void @_ZN19JfrCheckpointWriter11set_contextE20JfrCheckpointContext(ptr noundef nonnull align 8 dereferenceable(73) %0, i64 %1, i32 %2) #1 align 2 {
  %4 = alloca %struct.JfrCheckpointContext, align 8
  %5 = alloca ptr, align 8
  %6 = getelementptr inbounds { i64, i32 }, ptr %4, i32 0, i32 0
  store i64 %1, ptr %6, align 8
  %7 = getelementptr inbounds { i64, i32 }, ptr %4, i32 0, i32 1
  store i32 %2, ptr %7, align 8
  store ptr %0, ptr %5, align 8
  %8 = load ptr, ptr %5, align 8
  %9 = getelementptr inbounds %struct.JfrCheckpointContext, ptr %4, i32 0, i32 0
  %10 = load i64, ptr %9, align 8
  call void @_ZN11StorageHostI7AdapterI18JfrCheckpointFlushE8StackObjE4seekEl(ptr noundef nonnull align 8 dereferenceable(40) %8, i64 noundef %10)
  %11 = getelementptr inbounds %struct.JfrCheckpointContext, ptr %4, i32 0, i32 1
  %12 = load i32, ptr %11, align 8
  call void @_ZN19JfrCheckpointWriter9set_countEj(ptr noundef nonnull align 8 dereferenceable(73) %8, i32 noundef %12)
  ret void
}