; Function Attrs: mustprogress nofree norecurse nosync nounwind willreturn memory(argmem: readwrite) uwtable
define hidden void @_ZN19JfrCheckpointWriter11set_contextE20JfrCheckpointContext(ptr nocapture noundef nonnull align 8 dereferenceable(73) %0, i64 %1, i32 %2) local_unnamed_addr #4 align 2 {
  %4 = getelementptr inbounds i8, ptr %0, i64 16
  %5 = load ptr, ptr %4, align 8
  %.not.i = icmp eq ptr %5, null
  br i1 %.not.i, label %_ZN11StorageHostI7AdapterI18JfrCheckpointFlushE8StackObjE4seekEl.exit, label %6

6:                                                ; preds = %3
  %7 = load ptr, ptr %0, align 8
  %8 = getelementptr inbounds i8, ptr %7, i64 %1
  %9 = getelementptr inbounds i8, ptr %0, i64 8
  store ptr %8, ptr %9, align 8
  br label %_ZN11StorageHostI7AdapterI18JfrCheckpointFlushE8StackObjE4seekEl.exit

_ZN11StorageHostI7AdapterI18JfrCheckpointFlushE8StackObjE4seekEl.exit: ; preds = %3, %6
  %10 = getelementptr inbounds i8, ptr %0, i64 64
  store i32 %2, ptr %10, align 8
  ret void
}